target datalayout = "e-m:e-p270:32:32-p271:32:32-p272:64:64-i64:64-i128:128-f80:128-n8:16:32:64-S128"
target triple = "x86_64-pc-linux-gnu"

%struct.pct_info = type { i64, i64, double, i32 }

; Function Attrs: nounwind uwtable
define internal i32 @pct_info_cmp(ptr noundef %0, ptr noundef %1) #0 {
  %3 = alloca i32, align 4
  %4 = alloca ptr, align 8
  %5 = alloca ptr, align 8
  %6 = alloca ptr, align 8
  %7 = alloca ptr, align 8
  %8 = alloca i32, align 4
  store ptr %0, ptr %4, align 8
  store ptr %1, ptr %5, align 8
  call void @llvm.lifetime.start.p0(i64 8, ptr %6) #8
  %9 = load ptr, ptr %4, align 8
  store ptr %9, ptr %6, align 8
  call void @llvm.lifetime.start.p0(i64 8, ptr %7) #8
  %10 = load ptr, ptr %5, align 8
  store ptr %10, ptr %7, align 8
  %11 = load ptr, ptr %6, align 8
  %12 = getelementptr inbounds nuw %struct.pct_info, ptr %11, i32 0, i32 0
  %13 = load i64, ptr %12, align 8
  %14 = load ptr, ptr %7, align 8
  %15 = getelementptr inbounds nuw %struct.pct_info, ptr %14, i32 0, i32 0
  %16 = load i64, ptr %15, align 8
  %17 = icmp ne i64 %13, %16
  br i1 %17, label %18, label %27

18:                                               ; preds = %2
  %19 = load ptr, ptr %6, align 8
  %20 = getelementptr inbounds nuw %struct.pct_info, ptr %19, i32 0, i32 0
  %21 = load i64, ptr %20, align 8
  %22 = load ptr, ptr %7, align 8
  %23 = getelementptr inbounds nuw %struct.pct_info, ptr %22, i32 0, i32 0
  %24 = load i64, ptr %23, align 8
  %25 = icmp slt i64 %21, %24
  %26 = select i1 %25, i32 -1, i32 1
  store i32 %26, ptr %3, align 4
  store i32 1, ptr %8, align 4
  br label %45

27:                                               ; preds = %2
  %28 = load ptr, ptr %6, align 8
  %29 = getelementptr inbounds nuw %struct.pct_info, ptr %28, i32 0, i32 1
  %30 = load i64, ptr %29, align 8
  %31 = load ptr, ptr %7, align 8
  %32 = getelementptr inbounds nuw %struct.pct_info, ptr %31, i32 0, i32 1
  %33 = load i64, ptr %32, align 8
  %34 = icmp ne i64 %30, %33
  br i1 %34, label %35, label %44

35:                                               ; preds = %27
  %36 = load ptr, ptr %6, align 8
  %37 = getelementptr inbounds nuw %struct.pct_info, ptr %36, i32 0, i32 1
  %38 = load i64, ptr %37, align 8
  %39 = load ptr, ptr %7, align 8
  %40 = getelementptr inbounds nuw %struct.pct_info, ptr %39, i32 0, i32 1
  %41 = load i64, ptr %40, align 8
  %42 = icmp slt i64 %38, %41
  %43 = select i1 %42, i32 -1, i32 1
  store i32 %43, ptr %3, align 4
  store i32 1, ptr %8, align 4
  br label %45

44:                                               ; preds = %27
  store i32 0, ptr %3, align 4
  store i32 1, ptr %8, align 4
  br label %45

45:                                               ; preds = %44, %35, %18
  call void @llvm.lifetime.end.p0(i64 8, ptr %7) #8
  call void @llvm.lifetime.end.p0(i64 8, ptr %6) #8
  %46 = load i32, ptr %3, align 4
  ret i32 %46
}