; Function Attrs: mustprogress nofree norecurse nosync nounwind willreturn memory(argmem: read) uwtable
define internal range(i32 -1, 2) i32 @pct_info_cmp(ptr noundef readonly captures(none) %0, ptr noundef readonly captures(none) %1) #6 {
  %3 = load i64, ptr %0, align 8
  %4 = load i64, ptr %1, align 8
  %.not = icmp eq i64 %3, %4
  br i1 %.not, label %8, label %5

5:                                                ; preds = %2
  %6 = icmp slt i64 %3, %4
  %7 = select i1 %6, i32 -1, i32 1
  br label %16

8:                                                ; preds = %2
  %9 = getelementptr inbounds nuw i8, ptr %0, i64 8
  %10 = load i64, ptr %9, align 8
  %11 = getelementptr inbounds nuw i8, ptr %1, i64 8
  %12 = load i64, ptr %11, align 8
  %.not14 = icmp eq i64 %10, %12
  br i1 %.not14, label %16, label %13

13:                                               ; preds = %8
  %14 = icmp slt i64 %10, %12
  %15 = select i1 %14, i32 -1, i32 1
  br label %16

16:                                               ; preds = %8, %13, %5
  %.0 = phi i32 [ %7, %5 ], [ %15, %13 ], [ 0, %8 ]
  ret i32 %.0
}